target datalayout = "e-m:e-p270:32:32-p271:32:32-p272:64:64-i64:64-i128:128-f80:128-n8:16:32:64-S128"
target triple = "x86_64-pc-linux-gnu"

%struct.pmix_attr_init_t = type { ptr, ptr }

@server_attrs_regd = internal global i8 0, align 1
@.str.2 = private unnamed_addr constant [16 x i8] c"pmix.srvr.attrs\00", align 1

; Function Attrs: nounwind uwtable
define i32 @pmix_register_server_attrs() #0 {
  %1 = alloca i32, align 4
  %2 = alloca i32, align 4
  %3 = alloca i64, align 8
  %4 = alloca i32, align 4
  call void @llvm.lifetime.start.p0(i64 4, ptr %2) #13
  store i32 0, ptr %2, align 4, !tbaa !9
  call void @llvm.lifetime.start.p0(i64 8, ptr %3) #13
  %5 = load i8, ptr @server_attrs_regd, align 1, !tbaa !3, !range !7, !noundef !8
  %6 = trunc i8 %5 to i1
  br i1 %6, label %7, label %8

7:                                                ; preds = %0
  store i32 0, ptr %1, align 4
  store i32 1, ptr %4, align 4
  br label %35

8:                                                ; preds = %0
  store i8 1, ptr @server_attrs_regd, align 1, !tbaa !3
  store i64 0, ptr %3, align 8, !tbaa !41
  br label %9

9:                                                ; preds = %30, %8
  %10 = load i64, ptr %3, align 8, !tbaa !41
  %11 = getelementptr inbounds nuw [22 x %struct.pmix_attr_init_t], ptr @server_fns, i64 0, i64 %10
  %12 = getelementptr inbounds nuw %struct.pmix_attr_init_t, ptr %11, i32 0, i32 0
  %13 = load ptr, ptr %12, align 16, !tbaa !95
  %14 = call i64 @strlen(ptr noundef %13) #15
  %15 = icmp ne i64 0, %14
  br i1 %15, label %16, label %33

16:                                               ; preds = %9
  %17 = load i64, ptr %3, align 8, !tbaa !41
  %18 = getelementptr inbounds nuw [22 x %struct.pmix_attr_init_t], ptr @server_fns, i64 0, i64 %17
  %19 = getelementptr inbounds nuw %struct.pmix_attr_init_t, ptr %18, i32 0, i32 0
  %20 = load ptr, ptr %19, align 16, !tbaa !95
  %21 = load i64, ptr %3, align 8, !tbaa !41
  %22 = getelementptr inbounds nuw [22 x %struct.pmix_attr_init_t], ptr @server_fns, i64 0, i64 %21
  %23 = getelementptr inbounds nuw %struct.pmix_attr_init_t, ptr %22, i32 0, i32 1
  %24 = load ptr, ptr %23, align 8, !tbaa !97
  %25 = call i32 @process_reg(ptr noundef @.str.2, ptr noundef %20, ptr noundef %24)
  store i32 %25, ptr %2, align 4, !tbaa !9
  %26 = load i32, ptr %2, align 4, !tbaa !9
  %27 = icmp ne i32 0, %26
  br i1 %27, label %28, label %29

28:                                               ; preds = %16
  br label %33

29:                                               ; preds = %16
  br label %30

30:                                               ; preds = %29
  %31 = load i64, ptr %3, align 8, !tbaa !41
  %32 = add i64 %31, 1
  store i64 %32, ptr %3, align 8, !tbaa !41
  br label %9, !llvm.loop !99

33:                                               ; preds = %28, %9
  %34 = load i32, ptr %2, align 4, !tbaa !9
  store i32 %34, ptr %1, align 4
  store i32 1, ptr %4, align 4
  br label %35

35:                                               ; preds = %33, %7
  call void @llvm.lifetime.end.p0(i64 8, ptr %3) #13
  call void @llvm.lifetime.end.p0(i64 4, ptr %2) #13
  %36 = load i32, ptr %1, align 4
  ret i32 %36
}